target datalayout = "e-m:e-p270:32:32-p271:32:32-p272:64:64-i64:64-i128:128-f80:128-n8:16:32:64-S128"
target triple = "x86_64-pc-linux-gnu"

%struct._lv_label_t = type { %struct._lv_obj_t, ptr, [4 x i8], i32, %struct._lv_draw_label_hint_t, i32, i32, %struct.lv_point_t, %struct.lv_point_t, i8 }
%struct._lv_obj_t = type { ptr, ptr, ptr, ptr, ptr, %struct.lv_area_t, i32, i16, i16 }
%struct.lv_area_t = type { i32, i32, i32, i32 }
%struct._lv_draw_label_hint_t = type { i32, i32, i32 }
%struct.lv_point_t = type { i32, i32 }

; Function Attrs: nounwind uwtable
define internal void @copy_text_to_label(ptr noundef %0, ptr noundef %1) #0 {
  %3 = alloca ptr, align 8
  %4 = alloca ptr, align 8
  store ptr %0, ptr %3, align 8, !tbaa !3
  store ptr %1, ptr %4, align 8, !tbaa !3
  %5 = load ptr, ptr %3, align 8, !tbaa !3
  %6 = getelementptr inbounds nuw %struct._lv_label_t, ptr %5, i32 0, i32 1
  %7 = load ptr, ptr %6, align 8, !tbaa !7
  %8 = load ptr, ptr %4, align 8, !tbaa !3
  %9 = call ptr @lv_strcpy(ptr noundef %7, ptr noundef %8)
  ret void
}

; Function Attrs: nounwind uwtable
define internal i64 @get_text_length(ptr noundef %0) #0 {
  %2 = alloca ptr, align 8
  %3 = alloca i64, align 8
  store ptr %0, ptr %2, align 8, !tbaa !3
  call void @llvm.lifetime.start.p0(i64 8, ptr %3) #6
  store i64 0, ptr %3, align 8, !tbaa !26
  %4 = load ptr, ptr %2, align 8, !tbaa !3
  %5 = call i64 @lv_strlen(ptr noundef %4)
  %6 = add i64 %5, 1
  store i64 %6, ptr %3, align 8, !tbaa !26
  %7 = load i64, ptr %3, align 8, !tbaa !26
  call void @llvm.lifetime.end.p0(i64 8, ptr %3) #6
  ret i64 %7
}

; Function Attrs: nounwind uwtable
define internal void @lv_label_revert_dots(ptr noundef %0) #0 {
  %2 = alloca ptr, align 8
  %3 = alloca ptr, align 8
  %4 = alloca i32, align 4
  store ptr %0, ptr %2, align 8, !tbaa !3
  call void @llvm.lifetime.start.p0(i64 8, ptr %3) #6
  %5 = load ptr, ptr %2, align 8, !tbaa !3
  store ptr %5, ptr %3, align 8, !tbaa !3
  %6 = load ptr, ptr %3, align 8, !tbaa !3
  %7 = getelementptr inbounds nuw %struct._lv_label_t, ptr %6, i32 0, i32 3
  %8 = load i32, ptr %7, align 4, !tbaa !15
  %9 = icmp ne i32 %8, -1
  br i1 %9, label %10, label %49

10:                                               ; preds = %1
  call void @llvm.lifetime.start.p0(i64 4, ptr %4) #6
  store i32 0, ptr %4, align 4, !tbaa !21
  br label %11

11:                                               ; preds = %43, %10
  %12 = load i32, ptr %4, align 4, !tbaa !21
  %13 = icmp slt i32 %12, 4
  br i1 %13, label %14, label %23

14:                                               ; preds = %11
  %15 = load ptr, ptr %3, align 8, !tbaa !3
  %16 = getelementptr inbounds nuw %struct._lv_label_t, ptr %15, i32 0, i32 2
  %17 = load i32, ptr %4, align 4, !tbaa !21
  %18 = sext i32 %17 to i64
  %19 = getelementptr inbounds [4 x i8], ptr %16, i64 0, i64 %18
  %20 = load i8, ptr %19, align 1, !tbaa !28
  %21 = sext i8 %20 to i32
  %22 = icmp ne i32 %21, 0
  br label %23

23:                                               ; preds = %14, %11
  %24 = phi i1 [ false, %11 ], [ %22, %14 ]
  br i1 %24, label %26, label %25

25:                                               ; preds = %23
  call void @llvm.lifetime.end.p0(i64 4, ptr %4) #6
  br label %46

26:                                               ; preds = %23
  %27 = load ptr, ptr %3, align 8, !tbaa !3
  %28 = getelementptr inbounds nuw %struct._lv_label_t, ptr %27, i32 0, i32 2
  %29 = load i32, ptr %4, align 4, !tbaa !21
  %30 = sext i32 %29 to i64
  %31 = getelementptr inbounds [4 x i8], ptr %28, i64 0, i64 %30
  %32 = load i8, ptr %31, align 1, !tbaa !28
  %33 = load ptr, ptr %3, align 8, !tbaa !3
  %34 = getelementptr inbounds nuw %struct._lv_label_t, ptr %33, i32 0, i32 1
  %35 = load ptr, ptr %34, align 8, !tbaa !7
  %36 = load ptr, ptr %3, align 8, !tbaa !3
  %37 = getelementptr inbounds nuw %struct._lv_label_t, ptr %36, i32 0, i32 3
  %38 = load i32, ptr %37, align 4, !tbaa !15
  %39 = load i32, ptr %4, align 4, !tbaa !21
  %40 = add i32 %38, %39
  %41 = zext i32 %40 to i64
  %42 = getelementptr inbounds nuw i8, ptr %35, i64 %41
  store i8 %32, ptr %42, align 1, !tbaa !28
  br label %43

43:                                               ; preds = %26
  %44 = load i32, ptr %4, align 4, !tbaa !21
  %45 = add nsw i32 %44, 1
  store i32 %45, ptr %4, align 4, !tbaa !21
  br label %11, !llvm.loop !29

46:                                               ; preds = %25
  %47 = load ptr, ptr %3, align 8, !tbaa !3
  %48 = getelementptr inbounds nuw %struct._lv_label_t, ptr %47, i32 0, i32 3
  store i32 -1, ptr %48, align 4, !tbaa !15
  br label %49

49:                                               ; preds = %46, %1
  call void @llvm.lifetime.end.p0(i64 8, ptr %3) #6
  ret void
}

; Function Attrs: nounwind uwtable
define void @lv_label_set_text(ptr noundef %0, ptr noundef %1) #0 {
  %3 = alloca ptr, align 8
  %4 = alloca ptr, align 8
  %5 = alloca ptr, align 8
  %6 = alloca i64, align 8
  %7 = alloca i32, align 4
  store ptr %0, ptr %3, align 8, !tbaa !3
  store ptr %1, ptr %4, align 8, !tbaa !3
  br label %8

8:                                                ; preds = %2
  br label %9

9:                                                ; preds = %8
  call void @llvm.lifetime.start.p0(i64 8, ptr %5) #6
  %10 = load ptr, ptr %3, align 8, !tbaa !3
  store ptr %10, ptr %5, align 8, !tbaa !3
  %11 = load ptr, ptr %4, align 8, !tbaa !3
  %12 = icmp eq ptr %11, null
  br i1 %12, label %13, label %17

13:                                               ; preds = %9
  %14 = load ptr, ptr %5, align 8, !tbaa !3
  %15 = getelementptr inbounds nuw %struct._lv_label_t, ptr %14, i32 0, i32 1
  %16 = load ptr, ptr %15, align 8, !tbaa !7
  store ptr %16, ptr %4, align 8, !tbaa !3
  br label %17

17:                                               ; preds = %13, %9
  %18 = load ptr, ptr %3, align 8, !tbaa !3
  call void @lv_label_revert_dots(ptr noundef %18)
  call void @llvm.lifetime.start.p0(i64 8, ptr %6) #6
  %19 = load ptr, ptr %4, align 8, !tbaa !3
  %20 = call i64 @get_text_length(ptr noundef %19)
  store i64 %20, ptr %6, align 8, !tbaa !26
  %21 = load ptr, ptr %5, align 8, !tbaa !3
  %22 = getelementptr inbounds nuw %struct._lv_label_t, ptr %21, i32 0, i32 1
  %23 = load ptr, ptr %22, align 8, !tbaa !7
  %24 = load ptr, ptr %4, align 8, !tbaa !3
  %25 = icmp eq ptr %23, %24
  br i1 %25, label %26, label %62

26:                                               ; preds = %17
  %27 = load ptr, ptr %5, align 8, !tbaa !3
  %28 = getelementptr inbounds nuw %struct._lv_label_t, ptr %27, i32 0, i32 9
  %29 = load i8, ptr %28, align 4
  %30 = lshr i8 %29, 3
  %31 = and i8 %30, 1
  %32 = zext i8 %31 to i32
  %33 = icmp eq i32 %32, 0
  br i1 %33, label %34, label %62

34:                                               ; preds = %26
  %35 = load ptr, ptr %5, align 8, !tbaa !3
  %36 = getelementptr inbounds nuw %struct._lv_label_t, ptr %35, i32 0, i32 1
  %37 = load ptr, ptr %36, align 8, !tbaa !7
  %38 = load i64, ptr %6, align 8, !tbaa !26
  %39 = call ptr @lv_realloc(ptr noundef %37, i64 noundef %38)
  %40 = load ptr, ptr %5, align 8, !tbaa !3
  %41 = getelementptr inbounds nuw %struct._lv_label_t, ptr %40, i32 0, i32 1
  store ptr %39, ptr %41, align 8, !tbaa !7
  br label %42

42:                                               ; preds = %34
  %43 = load ptr, ptr %5, align 8, !tbaa !3
  %44 = getelementptr inbounds nuw %struct._lv_label_t, ptr %43, i32 0, i32 1
  %45 = load ptr, ptr %44, align 8, !tbaa !7
  %46 = icmp ne ptr %45, null
  br i1 %46, label %53, label %47

47:                                               ; preds = %42
  br label %48

48:                                               ; preds = %47
  br label %49

49:                                               ; preds = %48
  br label %50

50:                                               ; preds = %49
  br label %51

51:                                               ; preds = %52, %50
  br label %52

52:                                               ; preds = %51
  br label %51

53:                                               ; preds = %42
  br label %54

54:                                               ; preds = %53
  br label %55

55:                                               ; preds = %54
  %56 = load ptr, ptr %5, align 8, !tbaa !3
  %57 = getelementptr inbounds nuw %struct._lv_label_t, ptr %56, i32 0, i32 1
  %58 = load ptr, ptr %57, align 8, !tbaa !7
  %59 = icmp eq ptr %58, null
  br i1 %59, label %60, label %61

60:                                               ; preds = %55
  store i32 1, ptr %7, align 4
  br label %115

61:                                               ; preds = %55
  br label %113

62:                                               ; preds = %26, %17
  %63 = load ptr, ptr %5, align 8, !tbaa !3
  %64 = getelementptr inbounds nuw %struct._lv_label_t, ptr %63, i32 0, i32 1
  %65 = load ptr, ptr %64, align 8, !tbaa !7
  %66 = icmp ne ptr %65, null
  br i1 %66, label %67, label %81

67:                                               ; preds = %62
  %68 = load ptr, ptr %5, align 8, !tbaa !3
  %69 = getelementptr inbounds nuw %struct._lv_label_t, ptr %68, i32 0, i32 9
  %70 = load i8, ptr %69, align 4
  %71 = lshr i8 %70, 3
  %72 = and i8 %71, 1
  %73 = zext i8 %72 to i32
  %74 = icmp eq i32 %73, 0
  br i1 %74, label %75, label %81

75:                                               ; preds = %67
  %76 = load ptr, ptr %5, align 8, !tbaa !3
  %77 = getelementptr inbounds nuw %struct._lv_label_t, ptr %76, i32 0, i32 1
  %78 = load ptr, ptr %77, align 8, !tbaa !7
  call void @lv_free(ptr noundef %78)
  %79 = load ptr, ptr %5, align 8, !tbaa !3
  %80 = getelementptr inbounds nuw %struct._lv_label_t, ptr %79, i32 0, i32 1
  store ptr null, ptr %80, align 8, !tbaa !7
  br label %81

81:                                               ; preds = %75, %67, %62
  %82 = load i64, ptr %6, align 8, !tbaa !26
  %83 = call ptr @lv_malloc(i64 noundef %82)
  %84 = load ptr, ptr %5, align 8, !tbaa !3
  %85 = getelementptr inbounds nuw %struct._lv_label_t, ptr %84, i32 0, i32 1
  store ptr %83, ptr %85, align 8, !tbaa !7
  br label %86

86:                                               ; preds = %81
  %87 = load ptr, ptr %5, align 8, !tbaa !3
  %88 = getelementptr inbounds nuw %struct._lv_label_t, ptr %87, i32 0, i32 1
  %89 = load ptr, ptr %88, align 8, !tbaa !7
  %90 = icmp ne ptr %89, null
  br i1 %90, label %97, label %91

91:                                               ; preds = %86
  br label %92

92:                                               ; preds = %91
  br label %93

93:                                               ; preds = %92
  br label %94

94:                                               ; preds = %93
  br label %95

95:                                               ; preds = %96, %94
  br label %96

96:                                               ; preds = %95
  br label %95

97:                                               ; preds = %86
  br label %98

98:                                               ; preds = %97
  br label %99

99:                                               ; preds = %98
  %100 = load ptr, ptr %5, align 8, !tbaa !3
  %101 = getelementptr inbounds nuw %struct._lv_label_t, ptr %100, i32 0, i32 1
  %102 = load ptr, ptr %101, align 8, !tbaa !7
  %103 = icmp eq ptr %102, null
  br i1 %103, label %104, label %105

104:                                              ; preds = %99
  store i32 1, ptr %7, align 4
  br label %115

105:                                              ; preds = %99
  %106 = load ptr, ptr %5, align 8, !tbaa !3
  %107 = load ptr, ptr %4, align 8, !tbaa !3
  call void @copy_text_to_label(ptr noundef %106, ptr noundef %107)
  %108 = load ptr, ptr %5, align 8, !tbaa !3
  %109 = getelementptr inbounds nuw %struct._lv_label_t, ptr %108, i32 0, i32 9
  %110 = load i8, ptr %109, align 4
  %111 = and i8 %110, -9
  %112 = or i8 %111, 0
  store i8 %112, ptr %109, align 4
  br label %113

113:                                              ; preds = %105, %61
  %114 = load ptr, ptr %3, align 8, !tbaa !3
  call void @lv_label_refr_text(ptr noundef %114)
  store i32 0, ptr %7, align 4
  br label %115

115:                                              ; preds = %113, %104, %60
  call void @llvm.lifetime.end.p0(i64 8, ptr %6) #6
  call void @llvm.lifetime.end.p0(i64 8, ptr %5) #6
  %116 = load i32, ptr %7, align 4
  switch i32 %116, label %118 [
    i32 0, label %117
    i32 1, label %117
  ]

117:                                              ; preds = %115, %115
  ret void

118:                                              ; preds = %115
  unreachable
}