; Function Attrs: nounwind uwtable
define void @lv_label_set_text(ptr noundef %0, ptr noundef %1) local_unnamed_addr #0 {
  %3 = icmp eq ptr %1, null
  br i1 %3, label %4, label %7

4:                                                ; preds = %2
  %5 = getelementptr inbounds nuw i8, ptr %0, i64 64
  %6 = load ptr, ptr %5, align 8, !tbaa !3
  br label %7

7:                                                ; preds = %4, %2
  %.0 = phi ptr [ %6, %4 ], [ %1, %2 ]
  %8 = getelementptr inbounds nuw i8, ptr %0, i64 76
  %9 = load i32, ptr %8, align 4, !tbaa !14
  %.not.i = icmp eq i32 %9, -1
  br i1 %.not.i, label %lv_label_revert_dots.exit, label %.preheader.i

.preheader.i:                                     ; preds = %7
  %10 = getelementptr inbounds nuw i8, ptr %0, i64 72
  %11 = getelementptr inbounds nuw i8, ptr %0, i64 64
  br label %12

12:                                               ; preds = %15, %.preheader.i
  %indvars.iv.i = phi i64 [ 0, %.preheader.i ], [ %indvars.iv.next.i, %15 ]
  %13 = getelementptr inbounds [4 x i8], ptr %10, i64 0, i64 %indvars.iv.i
  %14 = load i8, ptr %13, align 1, !tbaa !20
  %.not11.i = icmp eq i8 %14, 0
  br i1 %.not11.i, label %.critedge.i, label %15

.critedge.i:                                      ; preds = %15, %12
  store i32 -1, ptr %8, align 4, !tbaa !14
  br label %lv_label_revert_dots.exit

15:                                               ; preds = %12
  %16 = load ptr, ptr %11, align 8, !tbaa !3
  %17 = load i32, ptr %8, align 4, !tbaa !14
  %18 = trunc nuw nsw i64 %indvars.iv.i to i32
  %19 = add i32 %17, %18
  %20 = zext i32 %19 to i64
  %21 = getelementptr inbounds nuw i8, ptr %16, i64 %20
  store i8 %14, ptr %21, align 1, !tbaa !20
  %indvars.iv.next.i = add nuw nsw i64 %indvars.iv.i, 1
  %exitcond.not.i = icmp eq i64 %indvars.iv.next.i, 4
  br i1 %exitcond.not.i, label %.critedge.i, label %12, !llvm.loop !21

lv_label_revert_dots.exit:                        ; preds = %7, %.critedge.i
  %22 = tail call i64 @lv_strlen(ptr noundef %.0) #7
  %23 = add i64 %22, 1
  %24 = getelementptr inbounds nuw i8, ptr %0, i64 64
  %25 = load ptr, ptr %24, align 8, !tbaa !3
  %26 = icmp eq ptr %25, %.0
  br i1 %26, label %27, label %34

27:                                               ; preds = %lv_label_revert_dots.exit
  %28 = getelementptr inbounds nuw i8, ptr %0, i64 116
  %29 = load i8, ptr %28, align 4
  %30 = and i8 %29, 8
  %31 = icmp eq i8 %30, 0
  br i1 %31, label %32, label %34

32:                                               ; preds = %27
  %33 = tail call ptr @lv_realloc(ptr noundef %25, i64 noundef %23) #7
  store ptr %33, ptr %24, align 8, !tbaa !3
  %.not28 = icmp eq ptr %33, null
  br i1 %.not28, label %.preheader, label %48

.preheader:                                       ; preds = %32, %.preheader
  br label %.preheader

34:                                               ; preds = %27, %lv_label_revert_dots.exit
  %.not = icmp eq ptr %25, null
  br i1 %.not, label %41, label %35

35:                                               ; preds = %34
  %36 = getelementptr inbounds nuw i8, ptr %0, i64 116
  %37 = load i8, ptr %36, align 4
  %38 = and i8 %37, 8
  %39 = icmp eq i8 %38, 0
  br i1 %39, label %40, label %41

40:                                               ; preds = %35
  tail call void @lv_free(ptr noundef nonnull %25) #7
  store ptr null, ptr %24, align 8, !tbaa !3
  br label %41

41:                                               ; preds = %40, %35, %34
  %42 = tail call ptr @lv_malloc(i64 noundef %23) #7
  store ptr %42, ptr %24, align 8, !tbaa !3
  %.not27 = icmp eq ptr %42, null
  br i1 %.not27, label %.preheader29, label %43

.preheader29:                                     ; preds = %41, %.preheader29
  br label %.preheader29

43:                                               ; preds = %41
  %44 = tail call ptr @lv_strcpy(ptr noundef nonnull %42, ptr noundef %.0) #7
  %45 = getelementptr inbounds nuw i8, ptr %0, i64 116
  %46 = load i8, ptr %45, align 4
  %47 = and i8 %46, -9
  store i8 %47, ptr %45, align 4
  br label %48

48:                                               ; preds = %32, %43
  tail call fastcc void @lv_label_refr_text(ptr noundef nonnull %0)
  ret void
}